target datalayout = "e-m:e-p270:32:32-p271:32:32-p272:64:64-i64:64-i128:128-f80:128-n8:16:32:64-S128"
target triple = "x86_64-pc-linux-gnu"

; Function Attrs: null_pointer_is_valid sspstrong uwtable
define internal zeroext i1 @dissect_dcp_etsi_heur(ptr noundef %0, ptr noundef %1, ptr noundef %2, ptr noundef %3) #0 {
  %5 = alloca i1, align 1
  %6 = alloca ptr, align 8
  %7 = alloca ptr, align 8
  %8 = alloca ptr, align 8
  %9 = alloca ptr, align 8
  %10 = alloca i16, align 2
  %11 = alloca i32, align 4
  %12 = alloca i16, align 2
  %13 = alloca i32, align 4
  store ptr %0, ptr %6, align 8
  store ptr %1, ptr %7, align 8
  store ptr %2, ptr %8, align 8
  store ptr %3, ptr %9, align 8
  call void @llvm.lifetime.start.p0(i64 2, ptr %10) #8
  %14 = load ptr, ptr %6, align 8
  %15 = call i32 @tvb_captured_length(ptr noundef %14)
  %16 = icmp ult i32 %15, 11
  br i1 %16, label %17, label %18

17:                                               ; preds = %4
  store i1 false, ptr %5, align 1
  store i32 1, ptr %11, align 4
  br label %90

18:                                               ; preds = %4
  %19 = load ptr, ptr %6, align 8
  %20 = call zeroext i16 @tvb_get_ntohs(ptr noundef %19, i32 noundef 0)
  store i16 %20, ptr %10, align 2
  %21 = load i16, ptr %10, align 2
  %22 = zext i16 %21 to i32
  %23 = icmp eq i32 %22, 16710
  br i1 %23, label %24, label %38

24:                                               ; preds = %18
  %25 = load ptr, ptr %6, align 8
  %26 = call zeroext i8 @tvb_get_uint8(ptr noundef %25, i32 noundef 8)
  %27 = zext i8 %26 to i32
  %28 = and i32 %27, 127
  %29 = icmp ne i32 %28, 16
  br i1 %29, label %30, label %31

30:                                               ; preds = %24
  store i1 false, ptr %5, align 1
  store i32 1, ptr %11, align 4
  br label %90

31:                                               ; preds = %24
  %32 = load ptr, ptr %6, align 8
  %33 = call zeroext i8 @tvb_get_uint8(ptr noundef %32, i32 noundef 9)
  %34 = zext i8 %33 to i32
  %35 = icmp ne i32 %34, 84
  br i1 %35, label %36, label %37

36:                                               ; preds = %31
  store i1 false, ptr %5, align 1
  store i32 1, ptr %11, align 4
  br label %90

37:                                               ; preds = %31
  br label %84

38:                                               ; preds = %18
  %39 = load i16, ptr %10, align 2
  %40 = zext i16 %39 to i32
  %41 = icmp eq i32 %40, 20550
  br i1 %41, label %42, label %82

42:                                               ; preds = %38
  %43 = load ptr, ptr %6, align 8
  %44 = call i32 @tvb_captured_length(ptr noundef %43)
  %45 = icmp ult i32 %44, 14
  br i1 %45, label %46, label %47

46:                                               ; preds = %42
  store i1 false, ptr %5, align 1
  store i32 1, ptr %11, align 4
  br label %90

47:                                               ; preds = %42
  call void @llvm.lifetime.start.p0(i64 2, ptr %12) #8
  %48 = load ptr, ptr %6, align 8
  %49 = call zeroext i16 @tvb_get_ntohs(ptr noundef %48, i32 noundef 10)
  store i16 %49, ptr %12, align 2
  call void @llvm.lifetime.start.p0(i64 4, ptr %13) #8
  store i32 14, ptr %13, align 4
  %50 = load i16, ptr %12, align 2
  %51 = zext i16 %50 to i32
  %52 = and i32 %51, 32768
  %53 = icmp ne i32 %52, 0
  br i1 %53, label %54, label %57

54:                                               ; preds = %47
  %55 = load i32, ptr %13, align 4
  %56 = add i32 %55, 2
  store i32 %56, ptr %13, align 4
  br label %57

57:                                               ; preds = %54, %47
  %58 = load i16, ptr %12, align 2
  %59 = zext i16 %58 to i32
  %60 = and i32 %59, 16384
  %61 = icmp ne i32 %60, 0
  br i1 %61, label %62, label %65

62:                                               ; preds = %57
  %63 = load i32, ptr %13, align 4
  %64 = add i32 %63, 4
  store i32 %64, ptr %13, align 4
  br label %65

65:                                               ; preds = %62, %57
  %66 = load ptr, ptr %6, align 8
  %67 = call i32 @tvb_captured_length(ptr noundef %66)
  %68 = load i32, ptr %13, align 4
  %69 = icmp ult i32 %67, %68
  br i1 %69, label %70, label %71

70:                                               ; preds = %65
  store i1 false, ptr %5, align 1
  store i32 1, ptr %11, align 4
  br label %79

71:                                               ; preds = %65
  %72 = load ptr, ptr %6, align 8
  %73 = load i32, ptr %13, align 4
  %74 = call zeroext i16 @crc16_x25_ccitt_tvb(ptr noundef %72, i32 noundef %73)
  %75 = zext i16 %74 to i32
  %76 = icmp ne i32 %75, 7439
  br i1 %76, label %77, label %78

77:                                               ; preds = %71
  store i1 false, ptr %5, align 1
  store i32 1, ptr %11, align 4
  br label %79

78:                                               ; preds = %71
  store i32 0, ptr %11, align 4
  br label %79

79:                                               ; preds = %78, %77, %70
  call void @llvm.lifetime.end.p0(i64 4, ptr %13) #8
  call void @llvm.lifetime.end.p0(i64 2, ptr %12) #8
  %80 = load i32, ptr %11, align 4
  switch i32 %80, label %90 [
    i32 0, label %81
  ]

81:                                               ; preds = %79
  br label %83

82:                                               ; preds = %38
  store i1 false, ptr %5, align 1
  store i32 1, ptr %11, align 4
  br label %90

83:                                               ; preds = %81
  br label %84

84:                                               ; preds = %83, %37
  %85 = load ptr, ptr %6, align 8
  %86 = load ptr, ptr %7, align 8
  %87 = load ptr, ptr %8, align 8
  %88 = load ptr, ptr %9, align 8
  %89 = call i32 @dissect_dcp_etsi(ptr noundef %85, ptr noundef %86, ptr noundef %87, ptr noundef %88)
  store i1 true, ptr %5, align 1
  store i32 1, ptr %11, align 4
  br label %90

90:                                               ; preds = %84, %82, %79, %46, %36, %30, %17
  call void @llvm.lifetime.end.p0(i64 2, ptr %10) #8
  %91 = load i1, ptr %5, align 1
  ret i1 %91
}