; Function Attrs: null_pointer_is_valid sspstrong uwtable
define internal noundef zeroext i1 @dissect_dcp_etsi_heur(ptr noundef %0, ptr noundef %1, ptr noundef %2, ptr noundef readnone captures(none) %3) #0 {
  %5 = tail call i32 @tvb_captured_length(ptr noundef %0)
  %6 = icmp ult i32 %5, 11
  br i1 %6, label %.critedge, label %7

7:                                                ; preds = %4
  %8 = tail call zeroext i16 @tvb_get_ntohs(ptr noundef %0, i32 noundef 0)
  switch i16 %8, label %.critedge [
    i16 16710, label %9
    i16 20550, label %14
  ]

9:                                                ; preds = %7
  %10 = tail call zeroext i8 @tvb_get_uint8(ptr noundef %0, i32 noundef 8)
  %11 = and i8 %10, 127
  %.not27 = icmp eq i8 %11, 16
  br i1 %.not27, label %12, label %.critedge

12:                                               ; preds = %9
  %13 = tail call zeroext i8 @tvb_get_uint8(ptr noundef %0, i32 noundef 9)
  %.not28 = icmp eq i8 %13, 84
  br i1 %.not28, label %26, label %.critedge

14:                                               ; preds = %7
  %15 = tail call i32 @tvb_captured_length(ptr noundef %0)
  %16 = icmp ult i32 %15, 14
  br i1 %16, label %.critedge, label %17

17:                                               ; preds = %14
  %18 = tail call zeroext i16 @tvb_get_ntohs(ptr noundef %0, i32 noundef 10)
  %.not = icmp sgt i16 %18, -1
  %spec.select = select i1 %.not, i32 14, i32 16
  %19 = lshr i16 %18, 12
  %20 = and i16 %19, 4
  %21 = zext nneg i16 %20 to i32
  %.1 = add nuw nsw i32 %spec.select, %21
  %22 = tail call i32 @tvb_captured_length(ptr noundef %0)
  %23 = icmp ult i32 %22, %.1
  br i1 %23, label %.critedge, label %24

24:                                               ; preds = %17
  %25 = tail call zeroext i16 @crc16_x25_ccitt_tvb(ptr noundef %0, i32 noundef %.1)
  %.not26 = icmp eq i16 %25, 7439
  br i1 %.not26, label %26, label %.critedge

26:                                               ; preds = %24, %12
  %27 = tail call i32 @dissect_dcp_etsi(ptr noundef %0, ptr noundef %1, ptr noundef %2, ptr poison)
  br label %.critedge

.critedge:                                        ; preds = %17, %7, %14, %12, %9, %4, %24, %26
  %.021 = phi i1 [ true, %26 ], [ false, %24 ], [ false, %4 ], [ false, %9 ], [ false, %12 ], [ false, %14 ], [ false, %7 ], [ false, %17 ]
  ret i1 %.021
}